; Function Attrs: mustprogress uwtable
define void @_ZN10MainWindow12setCustomizeEv(ptr noundef nonnull align 8 dereferenceable(1376) %0) local_unnamed_addr #9 align 2 personality ptr @__gxx_personality_v0 {
  %2 = alloca %class.MeshLabOptionsDialog, align 8
  %3 = alloca %"class.QMetaObject::Connection", align 8
  %4 = getelementptr inbounds i8, ptr %0, i64 192
  %5 = getelementptr inbounds i8, ptr %0, i64 216
  %6 = load ptr, ptr %5, align 8
  call void @_ZN20MeshLabOptionsDialogC1ER17RichParameterListRKS0_P7QWidget(ptr noundef nonnull align 8 dereferenceable(80) %2, ptr noundef nonnull align 8 dereferenceable(24) %4, ptr noundef nonnull align 8 dereferenceable(24) %6, ptr noundef nonnull %0)
  invoke void @_ZN7QObject7connectEPKS_PKcS1_S3_N2Qt14ConnectionTypeE(ptr dead_on_unwind nonnull writable sret(%"class.QMetaObject::Connection") align 8 %3, ptr noundef nonnull %2, ptr noundef nonnull @.str.176, ptr noundef nonnull %0, ptr noundef nonnull @.str.177, i32 noundef 0)
          to label %7 unwind label %10

7:                                                ; preds = %1
  call void @_ZN11QMetaObject10ConnectionD1Ev(ptr noundef nonnull align 8 dereferenceable(8) %3) #26
  %8 = invoke noundef i32 @_ZN7QDialog4execEv(ptr noundef nonnull align 8 dereferenceable(48) %2)
          to label %9 unwind label %10

9:                                                ; preds = %7
  call void @_ZN20MeshLabOptionsDialogD1Ev(ptr noundef nonnull align 8 dereferenceable(80) %2) #26
  ret void

10:                                               ; preds = %7, %1
  %11 = landingpad { ptr, i32 }
          cleanup
  call void @_ZN20MeshLabOptionsDialogD1Ev(ptr noundef nonnull align 8 dereferenceable(80) %2) #26
  resume { ptr, i32 } %11
}